target datalayout = "e-m:e-p270:32:32-p271:32:32-p272:64:64-i64:64-i128:128-f80:128-n8:16:32:64-S128"
target triple = "x86_64-pc-linux-gnu"

@.str.5 = private unnamed_addr constant [2 x i8] c":\00", align 1

; Function Attrs: mustprogress nounwind uwtable
define internal noundef ptr @_ZL11path_appendPcPKcPm(ptr noundef %0, ptr noundef %1, ptr noundef %2) #4 {
  %4 = alloca ptr, align 8
  %5 = alloca ptr, align 8
  %6 = alloca ptr, align 8
  %7 = alloca ptr, align 8
  %8 = alloca ptr, align 8
  %9 = alloca i64, align 8
  %10 = alloca i64, align 8
  %11 = alloca i64, align 8
  %12 = alloca ptr, align 8
  %13 = alloca i32, align 4
  store ptr %0, ptr %5, align 8, !tbaa !7
  store ptr %1, ptr %6, align 8, !tbaa !7
  store ptr %2, ptr %7, align 8, !tbaa !59
  call void @llvm.lifetime.start.p0(i64 8, ptr %8) #17
  call void @llvm.lifetime.start.p0(i64 8, ptr %9) #17
  call void @llvm.lifetime.start.p0(i64 8, ptr %10) #17
  store i64 0, ptr %10, align 8, !tbaa !3
  call void @llvm.lifetime.start.p0(i64 8, ptr %11) #17
  store i64 0, ptr %11, align 8, !tbaa !3
  call void @llvm.lifetime.start.p0(i64 8, ptr %12) #17
  store ptr @.str.5, ptr %12, align 8, !tbaa !7
  %14 = load ptr, ptr %6, align 8, !tbaa !7
  %15 = icmp eq ptr null, %14
  br i1 %15, label %16, label %18

16:                                               ; preds = %3
  %17 = load ptr, ptr %5, align 8, !tbaa !7
  store ptr %17, ptr %4, align 8
  store i32 1, ptr %13, align 4
  br label %76

18:                                               ; preds = %3
  %19 = load ptr, ptr %6, align 8, !tbaa !7
  %20 = call i64 @strlen(ptr noundef %19) #8
  store i64 %20, ptr %10, align 8, !tbaa !3
  %21 = load i64, ptr %10, align 8, !tbaa !3
  %22 = icmp eq i64 0, %21
  br i1 %22, label %23, label %25

23:                                               ; preds = %18
  %24 = load ptr, ptr %5, align 8, !tbaa !7
  store ptr %24, ptr %4, align 8
  store i32 1, ptr %13, align 4
  br label %76

25:                                               ; preds = %18
  %26 = load ptr, ptr %5, align 8, !tbaa !7
  %27 = icmp ne ptr null, %26
  br i1 %27, label %28, label %31

28:                                               ; preds = %25
  %29 = load ptr, ptr %5, align 8, !tbaa !7
  %30 = call i64 @strlen(ptr noundef %29) #8
  store i64 %30, ptr %11, align 8, !tbaa !3
  br label %31

31:                                               ; preds = %28, %25
  %32 = load i64, ptr %11, align 8, !tbaa !3
  %33 = load i64, ptr %10, align 8, !tbaa !3
  %34 = add i64 %32, %33
  %35 = load ptr, ptr %12, align 8, !tbaa !7
  %36 = call i64 @strlen(ptr noundef %35) #8
  %37 = add i64 %34, %36
  %38 = add i64 %37, 1
  store i64 %38, ptr %9, align 8, !tbaa !3
  %39 = load ptr, ptr %7, align 8, !tbaa !59
  %40 = load i64, ptr %39, align 8, !tbaa !3
  %41 = load i64, ptr %9, align 8, !tbaa !3
  %42 = icmp ult i64 %40, %41
  br i1 %42, label %43, label %64

43:                                               ; preds = %31
  %44 = load i64, ptr %9, align 8, !tbaa !3
  %45 = mul i64 2, %44
  %46 = call noalias ptr @calloc(i64 noundef %45, i64 noundef 1) #18
  store ptr %46, ptr %8, align 8, !tbaa !7
  %47 = load ptr, ptr %8, align 8, !tbaa !7
  %48 = icmp eq ptr null, %47
  br i1 %48, label %49, label %51

49:                                               ; preds = %43
  %50 = load ptr, ptr %5, align 8, !tbaa !7
  call void @free(ptr noundef %50) #17
  store ptr null, ptr %4, align 8
  store i32 1, ptr %13, align 4
  br label %76

51:                                               ; preds = %43
  %52 = load i64, ptr %9, align 8, !tbaa !3
  %53 = mul i64 2, %52
  %54 = load ptr, ptr %7, align 8, !tbaa !59
  store i64 %53, ptr %54, align 8, !tbaa !3
  %55 = load ptr, ptr %5, align 8, !tbaa !7
  %56 = icmp ne ptr %55, null
  br i1 %56, label %57, label %61

57:                                               ; preds = %51
  %58 = load ptr, ptr %8, align 8, !tbaa !7
  %59 = load ptr, ptr %5, align 8, !tbaa !7
  %60 = call ptr @strcpy(ptr noundef %58, ptr noundef %59) #17
  br label %61

61:                                               ; preds = %57, %51
  %62 = load ptr, ptr %5, align 8, !tbaa !7
  call void @free(ptr noundef %62) #17
  %63 = load ptr, ptr %8, align 8, !tbaa !7
  store ptr %63, ptr %5, align 8, !tbaa !7
  br label %64

64:                                               ; preds = %61, %31
  %65 = load i64, ptr %11, align 8, !tbaa !3
  %66 = icmp ne i64 0, %65
  br i1 %66, label %67, label %71

67:                                               ; preds = %64
  %68 = load ptr, ptr %5, align 8, !tbaa !7
  %69 = load ptr, ptr %12, align 8, !tbaa !7
  %70 = call ptr @strcat(ptr noundef %68, ptr noundef %69) #17
  br label %71

71:                                               ; preds = %67, %64
  %72 = load ptr, ptr %5, align 8, !tbaa !7
  %73 = load ptr, ptr %6, align 8, !tbaa !7
  %74 = call ptr @strcat(ptr noundef %72, ptr noundef %73) #17
  %75 = load ptr, ptr %5, align 8, !tbaa !7
  store ptr %75, ptr %4, align 8
  store i32 1, ptr %13, align 4
  br label %76

76:                                               ; preds = %71, %49, %23, %16
  call void @llvm.lifetime.end.p0(i64 8, ptr %12) #17
  call void @llvm.lifetime.end.p0(i64 8, ptr %11) #17
  call void @llvm.lifetime.end.p0(i64 8, ptr %10) #17
  call void @llvm.lifetime.end.p0(i64 8, ptr %9) #17
  call void @llvm.lifetime.end.p0(i64 8, ptr %8) #17
  %77 = load ptr, ptr %4, align 8
  ret ptr %77
}